target datalayout = "e-m:e-p270:32:32-p271:32:32-p272:64:64-i64:64-i128:128-f80:128-n8:16:32:64-S128"
target triple = "x86_64-pc-linux-gnu"

@.str.6 = private unnamed_addr constant [15 x i8] c"fcntl(F_GETFD)\00", align 1
@.str.7 = private unnamed_addr constant [15 x i8] c"fcntl(F_SETFD)\00", align 1

; Function Attrs: mustprogress uwtable
define dso_local void @_Z14SetCloseOnExeci(i32 noundef %0) #6 {
  %2 = alloca i32, align 4
  %3 = alloca i32, align 4
  store i32 %0, ptr %2, align 4, !tbaa !25
  call void @llvm.lifetime.start.p0(i64 4, ptr %3) #21
  %4 = load i32, ptr %2, align 4, !tbaa !25
  %5 = call i32 (i32, i32, ...) @fcntl(i32 noundef %4, i32 noundef 1)
  store i32 %5, ptr %3, align 4, !tbaa !25
  %6 = load i32, ptr %3, align 4, !tbaa !25
  %7 = icmp slt i32 %6, 0
  br i1 %7, label %8, label %9

8:                                                ; preds = %1
  call void @perror(ptr noundef @.str.6)
  br label %17

9:                                                ; preds = %1
  %10 = load i32, ptr %2, align 4, !tbaa !25
  %11 = load i32, ptr %3, align 4, !tbaa !25
  %12 = or i32 %11, 1
  %13 = call i32 (i32, i32, ...) @fcntl(i32 noundef %10, i32 noundef 2, i32 noundef %12)
  %14 = icmp slt i32 %13, 0
  br i1 %14, label %15, label %16

15:                                               ; preds = %9
  call void @perror(ptr noundef @.str.7)
  br label %16

16:                                               ; preds = %15, %9
  br label %17

17:                                               ; preds = %16, %8
  call void @llvm.lifetime.end.p0(i64 4, ptr %3) #21
  ret void
}