; Function Attrs: mustprogress uwtable
define dso_local void @_Z14SetCloseOnExeci(i32 noundef %0) local_unnamed_addr #7 {
  %2 = tail call i32 (i32, i32, ...) @fcntl(i32 noundef %0, i32 noundef 1)
  %3 = icmp slt i32 %2, 0
  br i1 %3, label %.sink.split, label %4

4:                                                ; preds = %1
  %5 = or i32 %2, 1
  %6 = tail call i32 (i32, i32, ...) @fcntl(i32 noundef %0, i32 noundef 2, i32 noundef %5)
  %7 = icmp slt i32 %6, 0
  br i1 %7, label %.sink.split, label %8

.sink.split:                                      ; preds = %4, %1
  %.str.7.sink = phi ptr [ @.str.6, %1 ], [ @.str.7, %4 ]
  tail call void @perror(ptr noundef nonnull %.str.7.sink) #33
  br label %8

8:                                                ; preds = %.sink.split, %4
  ret void
}